; Function Attrs: mustprogress nounwind willreturn uwtable
define dso_local void @onig_node_str_clear(ptr noundef %0, i32 noundef %1) local_unnamed_addr #15 {
  %.not = icmp eq i32 %1, 0
  br i1 %.not, label %11, label %3

3:                                                ; preds = %2
  %4 = getelementptr inbounds nuw i8, ptr %0, i64 60
  %5 = load i32, ptr %4, align 4, !tbaa !10
  %.not11 = icmp eq i32 %5, 0
  br i1 %.not11, label %11, label %6

6:                                                ; preds = %3
  %7 = getelementptr inbounds nuw i8, ptr %0, i64 16
  %8 = load ptr, ptr %7, align 8, !tbaa !10
  %.not12 = icmp eq ptr %8, null
  %9 = getelementptr inbounds nuw i8, ptr %0, i64 36
  %.not13 = icmp eq ptr %8, %9
  %or.cond = select i1 %.not12, i1 true, i1 %.not13
  br i1 %or.cond, label %11, label %10

10:                                               ; preds = %6
  tail call void @free(ptr noundef nonnull %8) #25
  br label %11

11:                                               ; preds = %10, %6, %3, %2
  %12 = getelementptr inbounds nuw i8, ptr %0, i64 32
  store i32 0, ptr %12, align 8, !tbaa !10
  %13 = getelementptr inbounds nuw i8, ptr %0, i64 36
  %14 = getelementptr inbounds nuw i8, ptr %0, i64 16
  store ptr %13, ptr %14, align 8, !tbaa !10
  %15 = getelementptr inbounds nuw i8, ptr %0, i64 24
  store ptr %13, ptr %15, align 8, !tbaa !10
  %16 = getelementptr inbounds nuw i8, ptr %0, i64 60
  store i32 0, ptr %16, align 4, !tbaa !10
  ret void
}